target datalayout = "e-m:e-p270:32:32-p271:32:32-p272:64:64-i64:64-i128:128-f80:128-n8:16:32:64-S128"
target triple = "x86_64-pc-linux-gnu"

%"class.icu_77::IteratedChar" = type <{ i32, i32, i32, i8, i8, [2 x i8] }>

@_ZN6icu_7712IteratedCharC1Ev = unnamed_addr alias void (ptr), ptr @_ZN6icu_7712IteratedCharC2Ev

; Function Attrs: mustprogress nounwind uwtable
define internal noundef i32 @_ZN6icu_77L12binarySearchEPKtit(ptr noundef %0, i32 noundef %1, i16 noundef zeroext %2) #0 {
  %4 = alloca i32, align 4
  %5 = alloca ptr, align 8
  %6 = alloca i32, align 4
  %7 = alloca i16, align 2
  %8 = alloca i32, align 4
  %9 = alloca i32, align 4
  %10 = alloca i32, align 4
  %11 = alloca i32, align 4
  store ptr %0, ptr %5, align 8, !tbaa !25
  store i32 %1, ptr %6, align 4, !tbaa !26
  store i16 %2, ptr %7, align 2, !tbaa !33
  call void @llvm.lifetime.start.p0(i64 4, ptr %8) #7
  store i32 0, ptr %8, align 4, !tbaa !26
  call void @llvm.lifetime.start.p0(i64 4, ptr %9) #7
  %12 = load i32, ptr %6, align 4, !tbaa !26
  %13 = sub nsw i32 %12, 1
  store i32 %13, ptr %9, align 4, !tbaa !26
  call void @llvm.lifetime.start.p0(i64 4, ptr %10) #7
  %14 = load i32, ptr %8, align 4, !tbaa !26
  %15 = load i32, ptr %9, align 4, !tbaa !26
  %16 = add nsw i32 %14, %15
  %17 = sdiv i32 %16, 2
  store i32 %17, ptr %10, align 4, !tbaa !26
  br label %18

18:                                               ; preds = %50, %3
  %19 = load i32, ptr %8, align 4, !tbaa !26
  %20 = load i32, ptr %9, align 4, !tbaa !26
  %21 = icmp sle i32 %19, %20
  br i1 %21, label %22, label %55

22:                                               ; preds = %18
  %23 = load ptr, ptr %5, align 8, !tbaa !25
  %24 = load i32, ptr %10, align 4, !tbaa !26
  %25 = sext i32 %24 to i64
  %26 = getelementptr inbounds i16, ptr %23, i64 %25
  %27 = load i16, ptr %26, align 2, !tbaa !33
  %28 = zext i16 %27 to i32
  %29 = load i16, ptr %7, align 2, !tbaa !33
  %30 = zext i16 %29 to i32
  %31 = icmp eq i32 %28, %30
  br i1 %31, label %32, label %34

32:                                               ; preds = %22
  %33 = load i32, ptr %10, align 4, !tbaa !26
  store i32 %33, ptr %4, align 4
  store i32 1, ptr %11, align 4
  br label %56

34:                                               ; preds = %22
  %35 = load ptr, ptr %5, align 8, !tbaa !25
  %36 = load i32, ptr %10, align 4, !tbaa !26
  %37 = sext i32 %36 to i64
  %38 = getelementptr inbounds i16, ptr %35, i64 %37
  %39 = load i16, ptr %38, align 2, !tbaa !33
  %40 = zext i16 %39 to i32
  %41 = load i16, ptr %7, align 2, !tbaa !33
  %42 = zext i16 %41 to i32
  %43 = icmp slt i32 %40, %42
  br i1 %43, label %44, label %47

44:                                               ; preds = %34
  %45 = load i32, ptr %10, align 4, !tbaa !26
  %46 = add nsw i32 %45, 1
  store i32 %46, ptr %8, align 4, !tbaa !26
  br label %50

47:                                               ; preds = %34
  %48 = load i32, ptr %10, align 4, !tbaa !26
  %49 = sub nsw i32 %48, 1
  store i32 %49, ptr %9, align 4, !tbaa !26
  br label %50

50:                                               ; preds = %47, %44
  %51 = load i32, ptr %8, align 4, !tbaa !26
  %52 = load i32, ptr %9, align 4, !tbaa !26
  %53 = add nsw i32 %51, %52
  %54 = sdiv i32 %53, 2
  store i32 %54, ptr %10, align 4, !tbaa !26
  br label %18, !llvm.loop !35

55:                                               ; preds = %18
  store i32 -1, ptr %4, align 4
  store i32 1, ptr %11, align 4
  br label %56

56:                                               ; preds = %55, %32
  call void @llvm.lifetime.end.p0(i64 4, ptr %10) #7
  call void @llvm.lifetime.end.p0(i64 4, ptr %9) #7
  call void @llvm.lifetime.end.p0(i64 4, ptr %8) #7
  %57 = load i32, ptr %4, align 4
  ret i32 %57
}

; Function Attrs: mustprogress uwtable
define noundef i32 @_ZNK6icu_7717CharsetRecog_mbcs10match_mbcsEPNS_9InputTextEPKti(ptr noundef nonnull align 8 dereferenceable(8) %0, ptr noundef %1, ptr noundef %2, i32 noundef %3) #3 align 2 {
  %5 = alloca i32, align 4
  %6 = alloca ptr, align 8
  %7 = alloca ptr, align 8
  %8 = alloca ptr, align 8
  %9 = alloca i32, align 4
  %10 = alloca i32, align 4
  %11 = alloca i32, align 4
  %12 = alloca i32, align 4
  %13 = alloca i32, align 4
  %14 = alloca i32, align 4
  %15 = alloca %"class.icu_77::IteratedChar", align 4
  %16 = alloca i32, align 4
  %17 = alloca double, align 8
  %18 = alloca double, align 8
  store ptr %0, ptr %6, align 8, !tbaa !23
  store ptr %1, ptr %7, align 8, !tbaa !15
  store ptr %2, ptr %8, align 8, !tbaa !25
  store i32 %3, ptr %9, align 4, !tbaa !26
  %19 = load ptr, ptr %6, align 8
  call void @llvm.lifetime.start.p0(i64 4, ptr %10) #7
  store i32 0, ptr %10, align 4, !tbaa !26
  call void @llvm.lifetime.start.p0(i64 4, ptr %11) #7
  store i32 0, ptr %11, align 4, !tbaa !26
  call void @llvm.lifetime.start.p0(i64 4, ptr %12) #7
  store i32 0, ptr %12, align 4, !tbaa !26
  call void @llvm.lifetime.start.p0(i64 4, ptr %13) #7
  store i32 0, ptr %13, align 4, !tbaa !26
  call void @llvm.lifetime.start.p0(i64 4, ptr %14) #7
  store i32 0, ptr %14, align 4, !tbaa !26
  call void @llvm.lifetime.start.p0(i64 16, ptr %15) #7
  call void @_ZN6icu_7712IteratedCharC1Ev(ptr noundef nonnull align 4 dereferenceable(14) %15)
  br label %20

20:                                               ; preds = %69, %4
  %21 = load ptr, ptr %7, align 8, !tbaa !15
  %22 = load ptr, ptr %19, align 8, !tbaa !27
  %23 = getelementptr inbounds ptr, ptr %22, i64 5
  %24 = load ptr, ptr %23, align 8
  %25 = call noundef signext i8 %24(ptr noundef nonnull align 8 dereferenceable(8) %19, ptr noundef %15, ptr noundef %21)
  %26 = icmp ne i8 %25, 0
  br i1 %26, label %27, label %70

27:                                               ; preds = %20
  %28 = load i32, ptr %13, align 4, !tbaa !26
  %29 = add nsw i32 %28, 1
  store i32 %29, ptr %13, align 4, !tbaa !26
  %30 = getelementptr inbounds nuw %"class.icu_77::IteratedChar", ptr %15, i32 0, i32 3
  %31 = load i8, ptr %30, align 4, !tbaa !13
  %32 = icmp ne i8 %31, 0
  br i1 %32, label %33, label %36

33:                                               ; preds = %27
  %34 = load i32, ptr %12, align 4, !tbaa !26
  %35 = add nsw i32 %34, 1
  store i32 %35, ptr %12, align 4, !tbaa !26
  br label %59

36:                                               ; preds = %27
  %37 = getelementptr inbounds nuw %"class.icu_77::IteratedChar", ptr %15, i32 0, i32 0
  %38 = load i32, ptr %37, align 4, !tbaa !8
  %39 = icmp ugt i32 %38, 255
  br i1 %39, label %40, label %58

40:                                               ; preds = %36
  %41 = load i32, ptr %10, align 4, !tbaa !26
  %42 = add nsw i32 %41, 1
  store i32 %42, ptr %10, align 4, !tbaa !26
  %43 = load ptr, ptr %8, align 8, !tbaa !25
  %44 = icmp ne ptr %43, null
  br i1 %44, label %45, label %57

45:                                               ; preds = %40
  %46 = load ptr, ptr %8, align 8, !tbaa !25
  %47 = load i32, ptr %9, align 4, !tbaa !26
  %48 = getelementptr inbounds nuw %"class.icu_77::IteratedChar", ptr %15, i32 0, i32 0
  %49 = load i32, ptr %48, align 4, !tbaa !8
  %50 = trunc i32 %49 to i16
  %51 = call noundef i32 @_ZN6icu_77L12binarySearchEPKtit(ptr noundef %46, i32 noundef %47, i16 noundef zeroext %50)
  %52 = icmp sge i32 %51, 0
  br i1 %52, label %53, label %56

53:                                               ; preds = %45
  %54 = load i32, ptr %11, align 4, !tbaa !26
  %55 = add nsw i32 %54, 1
  store i32 %55, ptr %11, align 4, !tbaa !26
  br label %56

56:                                               ; preds = %53, %45
  br label %57

57:                                               ; preds = %56, %40
  br label %58

58:                                               ; preds = %57, %36
  br label %59

59:                                               ; preds = %58, %33
  %60 = load i32, ptr %12, align 4, !tbaa !26
  %61 = icmp sge i32 %60, 2
  br i1 %61, label %62, label %69

62:                                               ; preds = %59
  %63 = load i32, ptr %12, align 4, !tbaa !26
  %64 = mul nsw i32 %63, 5
  %65 = load i32, ptr %10, align 4, !tbaa !26
  %66 = icmp sge i32 %64, %65
  br i1 %66, label %67, label %69

67:                                               ; preds = %62
  %68 = load i32, ptr %14, align 4, !tbaa !26
  store i32 %68, ptr %5, align 4
  store i32 1, ptr %16, align 4
  br label %133

69:                                               ; preds = %62, %59
  br label %20, !llvm.loop !29

70:                                               ; preds = %20
  %71 = load i32, ptr %10, align 4, !tbaa !26
  %72 = icmp sle i32 %71, 10
  br i1 %72, label %73, label %86

73:                                               ; preds = %70
  %74 = load i32, ptr %12, align 4, !tbaa !26
  %75 = icmp eq i32 %74, 0
  br i1 %75, label %76, label %86

76:                                               ; preds = %73
  %77 = load i32, ptr %10, align 4, !tbaa !26
  %78 = icmp eq i32 %77, 0
  br i1 %78, label %79, label %83

79:                                               ; preds = %76
  %80 = load i32, ptr %13, align 4, !tbaa !26
  %81 = icmp slt i32 %80, 10
  br i1 %81, label %82, label %83

82:                                               ; preds = %79
  store i32 0, ptr %14, align 4, !tbaa !26
  br label %84

83:                                               ; preds = %79, %76
  store i32 10, ptr %14, align 4, !tbaa !26
  br label %84

84:                                               ; preds = %83, %82
  %85 = load i32, ptr %14, align 4, !tbaa !26
  store i32 %85, ptr %5, align 4
  store i32 1, ptr %16, align 4
  br label %133

86:                                               ; preds = %73, %70
  %87 = load i32, ptr %10, align 4, !tbaa !26
  %88 = load i32, ptr %12, align 4, !tbaa !26
  %89 = mul nsw i32 20, %88
  %90 = icmp slt i32 %87, %89
  br i1 %90, label %91, label %93

91:                                               ; preds = %86
  store i32 0, ptr %14, align 4, !tbaa !26
  %92 = load i32, ptr %14, align 4, !tbaa !26
  store i32 %92, ptr %5, align 4
  store i32 1, ptr %16, align 4
  br label %133

93:                                               ; preds = %86
  %94 = load ptr, ptr %8, align 8, !tbaa !25
  %95 = icmp eq ptr %94, null
  br i1 %95, label %96, label %106

96:                                               ; preds = %93
  %97 = load i32, ptr %10, align 4, !tbaa !26
  %98 = add nsw i32 30, %97
  %99 = load i32, ptr %12, align 4, !tbaa !26
  %100 = mul nsw i32 20, %99
  %101 = sub nsw i32 %98, %100
  store i32 %101, ptr %14, align 4, !tbaa !26
  %102 = load i32, ptr %14, align 4, !tbaa !26
  %103 = icmp sgt i32 %102, 100
  br i1 %103, label %104, label %105

104:                                              ; preds = %96
  store i32 100, ptr %14, align 4, !tbaa !26
  br label %105

105:                                              ; preds = %104, %96
  br label %127

106:                                              ; preds = %93
  call void @llvm.lifetime.start.p0(i64 8, ptr %17) #7
  %107 = load i32, ptr %10, align 4, !tbaa !26
  %108 = sitofp i32 %107 to double
  %109 = fdiv double %108, 4.000000e+00
  %110 = call double @log(double noundef %109) #7, !tbaa !26
  store double %110, ptr %17, align 8, !tbaa !31
  call void @llvm.lifetime.start.p0(i64 8, ptr %18) #7
  %111 = load double, ptr %17, align 8, !tbaa !31
  %112 = fdiv double 9.000000e+01, %111
  store double %112, ptr %18, align 8, !tbaa !31
  %113 = load i32, ptr %11, align 4, !tbaa !26
  %114 = sitofp i32 %113 to double
  %115 = fadd double %114, 1.000000e+00
  %116 = call double @log(double noundef %115) #7, !tbaa !26
  %117 = load double, ptr %18, align 8, !tbaa !31
  %118 = call double @llvm.fmuladd.f64(double %116, double %117, double 1.000000e+01)
  %119 = fptosi double %118 to i32
  store i32 %119, ptr %14, align 4, !tbaa !26
  %120 = load i32, ptr %14, align 4, !tbaa !26
  %121 = icmp slt i32 %120, 100
  br i1 %121, label %122, label %124

122:                                              ; preds = %106
  %123 = load i32, ptr %14, align 4, !tbaa !26
  br label %125

124:                                              ; preds = %106
  br label %125

125:                                              ; preds = %124, %122
  %126 = phi i32 [ %123, %122 ], [ 100, %124 ]
  store i32 %126, ptr %14, align 4, !tbaa !26
  call void @llvm.lifetime.end.p0(i64 8, ptr %18) #7
  call void @llvm.lifetime.end.p0(i64 8, ptr %17) #7
  br label %127

127:                                              ; preds = %125, %105
  %128 = load i32, ptr %14, align 4, !tbaa !26
  %129 = icmp slt i32 %128, 0
  br i1 %129, label %130, label %131

130:                                              ; preds = %127
  store i32 0, ptr %14, align 4, !tbaa !26
  br label %131

131:                                              ; preds = %130, %127
  %132 = load i32, ptr %14, align 4, !tbaa !26
  store i32 %132, ptr %5, align 4
  store i32 1, ptr %16, align 4
  br label %133

133:                                              ; preds = %131, %91, %84, %67
  call void @llvm.lifetime.end.p0(i64 16, ptr %15) #7
  call void @llvm.lifetime.end.p0(i64 4, ptr %14) #7
  call void @llvm.lifetime.end.p0(i64 4, ptr %13) #7
  call void @llvm.lifetime.end.p0(i64 4, ptr %12) #7
  call void @llvm.lifetime.end.p0(i64 4, ptr %11) #7
  call void @llvm.lifetime.end.p0(i64 4, ptr %10) #7
  %134 = load i32, ptr %5, align 4
  ret i32 %134
}