; Function Attrs: mustprogress uwtable
define noundef range(i32 0, 101) i32 @_ZNK6icu_7717CharsetRecog_mbcs10match_mbcsEPNS_9InputTextEPKti(ptr noundef nonnull align 8 dereferenceable(8) %0, ptr noundef %1, ptr noundef readonly %2, i32 noundef %3) local_unnamed_addr #6 align 2 {
  %5 = alloca %"class.icu_77::IteratedChar", align 4
  call void @llvm.lifetime.start.p0(i64 16, ptr nonnull %5) #13
  call void @_ZN6icu_7712IteratedCharC1Ev(ptr noundef nonnull align 4 dereferenceable(14) %5)
  %6 = getelementptr inbounds nuw i8, ptr %5, i64 12
  %.not49 = icmp eq ptr %2, null
  %7 = add nsw i32 %3, -1
  br i1 %.not49, label %.split.us, label %.split

.split.us:                                        ; preds = %4, %_ZN6icu_77L12binarySearchEPKtit.exit.thread.us
  %.041.us = phi i32 [ %.142.us, %_ZN6icu_77L12binarySearchEPKtit.exit.thread.us ], [ 0, %4 ]
  %.040.us = phi i32 [ %13, %_ZN6icu_77L12binarySearchEPKtit.exit.thread.us ], [ 0, %4 ]
  %.037.us = phi i32 [ %.1.us, %_ZN6icu_77L12binarySearchEPKtit.exit.thread.us ], [ 0, %4 ]
  %8 = load ptr, ptr %0, align 8, !tbaa !19
  %9 = getelementptr inbounds nuw i8, ptr %8, i64 40
  %10 = load ptr, ptr %9, align 8
  %11 = call noundef signext i8 %10(ptr noundef nonnull align 8 dereferenceable(8) %0, ptr noundef nonnull %5, ptr noundef %1)
  %.not.us = icmp eq i8 %11, 0
  br i1 %.not.us, label %.split60.us, label %12

12:                                               ; preds = %.split.us
  %13 = add nuw nsw i32 %.040.us, 1
  %14 = load i8, ptr %6, align 4, !tbaa !10
  %.not48.us = icmp eq i8 %14, 0
  br i1 %.not48.us, label %17, label %15

15:                                               ; preds = %12
  %16 = add nsw i32 %.041.us, 1
  br label %_ZN6icu_77L12binarySearchEPKtit.exit.thread.us

17:                                               ; preds = %12
  %18 = load i32, ptr %5, align 4, !tbaa !3
  %19 = icmp ugt i32 %18, 255
  %20 = zext i1 %19 to i32
  %spec.select84 = add nsw i32 %.037.us, %20
  br label %_ZN6icu_77L12binarySearchEPKtit.exit.thread.us

_ZN6icu_77L12binarySearchEPKtit.exit.thread.us:   ; preds = %17, %15
  %.142.us = phi i32 [ %16, %15 ], [ %.041.us, %17 ]
  %.1.us = phi i32 [ %.037.us, %15 ], [ %spec.select84, %17 ]
  %21 = icmp slt i32 %.142.us, 2
  %22 = mul nuw nsw i32 %.142.us, 5
  %.not50.us = icmp slt i32 %22, %.1.us
  %or.cond51.us = select i1 %21, i1 true, i1 %.not50.us
  br i1 %or.cond51.us, label %.split.us, label %.loopexit, !llvm.loop !21

.split:                                           ; preds = %4
  %.not23.i = icmp slt i32 %3, 1
  br i1 %.not23.i, label %.split.split.us, label %.split.split

.split.split.us:                                  ; preds = %.split, %_ZN6icu_77L12binarySearchEPKtit.exit.thread.us70
  %.041.us65 = phi i32 [ %.142.us72, %_ZN6icu_77L12binarySearchEPKtit.exit.thread.us70 ], [ 0, %.split ]
  %.040.us66 = phi i32 [ %28, %_ZN6icu_77L12binarySearchEPKtit.exit.thread.us70 ], [ 0, %.split ]
  %.037.us67 = phi i32 [ %.1.us73, %_ZN6icu_77L12binarySearchEPKtit.exit.thread.us70 ], [ 0, %.split ]
  %23 = load ptr, ptr %0, align 8, !tbaa !19
  %24 = getelementptr inbounds nuw i8, ptr %23, i64 40
  %25 = load ptr, ptr %24, align 8
  %26 = call noundef signext i8 %25(ptr noundef nonnull align 8 dereferenceable(8) %0, ptr noundef nonnull %5, ptr noundef %1)
  %.not.us68 = icmp eq i8 %26, 0
  br i1 %.not.us68, label %.split60.us, label %27

27:                                               ; preds = %.split.split.us
  %28 = add nuw nsw i32 %.040.us66, 1
  %29 = load i8, ptr %6, align 4, !tbaa !10
  %.not48.us69 = icmp eq i8 %29, 0
  br i1 %.not48.us69, label %32, label %30

30:                                               ; preds = %27
  %31 = add nsw i32 %.041.us65, 1
  br label %_ZN6icu_77L12binarySearchEPKtit.exit.thread.us70

32:                                               ; preds = %27
  %33 = load i32, ptr %5, align 4, !tbaa !3
  %34 = icmp ugt i32 %33, 255
  %35 = zext i1 %34 to i32
  %spec.select85 = add nsw i32 %.037.us67, %35
  br label %_ZN6icu_77L12binarySearchEPKtit.exit.thread.us70

_ZN6icu_77L12binarySearchEPKtit.exit.thread.us70: ; preds = %32, %30
  %.142.us72 = phi i32 [ %31, %30 ], [ %.041.us65, %32 ]
  %.1.us73 = phi i32 [ %.037.us67, %30 ], [ %spec.select85, %32 ]
  %36 = icmp slt i32 %.142.us72, 2
  %37 = mul nuw nsw i32 %.142.us72, 5
  %.not50.us74 = icmp slt i32 %37, %.1.us73
  %or.cond51.us75 = select i1 %36, i1 true, i1 %.not50.us74
  br i1 %or.cond51.us75, label %.split.split.us, label %.loopexit, !llvm.loop !21

.split.split:                                     ; preds = %.split, %_ZN6icu_77L12binarySearchEPKtit.exit.thread
  %.043 = phi i32 [ %.144, %_ZN6icu_77L12binarySearchEPKtit.exit.thread ], [ 0, %.split ]
  %.041 = phi i32 [ %.142, %_ZN6icu_77L12binarySearchEPKtit.exit.thread ], [ 0, %.split ]
  %.040 = phi i32 [ %43, %_ZN6icu_77L12binarySearchEPKtit.exit.thread ], [ 0, %.split ]
  %.037 = phi i32 [ %.1, %_ZN6icu_77L12binarySearchEPKtit.exit.thread ], [ 0, %.split ]
  %38 = load ptr, ptr %0, align 8, !tbaa !19
  %39 = getelementptr inbounds nuw i8, ptr %38, i64 40
  %40 = load ptr, ptr %39, align 8
  %41 = call noundef signext i8 %40(ptr noundef nonnull align 8 dereferenceable(8) %0, ptr noundef nonnull %5, ptr noundef %1)
  %.not = icmp eq i8 %41, 0
  br i1 %.not, label %.split60.us.loopexit88, label %42

42:                                               ; preds = %.split.split
  %43 = add nuw nsw i32 %.040, 1
  %44 = load i8, ptr %6, align 4, !tbaa !10
  %.not48 = icmp eq i8 %44, 0
  br i1 %.not48, label %47, label %45

45:                                               ; preds = %42
  %46 = add nsw i32 %.041, 1
  br label %_ZN6icu_77L12binarySearchEPKtit.exit.thread

47:                                               ; preds = %42
  %48 = load i32, ptr %5, align 4, !tbaa !3
  %49 = icmp ugt i32 %48, 255
  br i1 %49, label %.lr.ph.preheader.i, label %_ZN6icu_77L12binarySearchEPKtit.exit.thread

.lr.ph.preheader.i:                               ; preds = %47
  %50 = add nsw i32 %.037, 1
  %51 = trunc i32 %48 to i16
  br label %.lr.ph.i

.lr.ph.i:                                         ; preds = %56, %.lr.ph.preheader.i
  %.026.in.i = phi i32 [ %60, %56 ], [ %7, %.lr.ph.preheader.i ]
  %.01625.i = phi i32 [ %.1.i, %56 ], [ %7, %.lr.ph.preheader.i ]
  %.01724.i = phi i32 [ %.118.i, %56 ], [ 0, %.lr.ph.preheader.i ]
  %.026.in.i.fr = freeze i32 %.026.in.i
  %.026.i = sdiv i32 %.026.in.i.fr, 2
  %52 = sext i32 %.026.i to i64
  %53 = getelementptr inbounds i16, ptr %2, i64 %52
  %54 = load i16, ptr %53, align 2, !tbaa !23
  %55 = icmp eq i16 %54, %51
  br i1 %55, label %_ZN6icu_77L12binarySearchEPKtit.exit, label %56

56:                                               ; preds = %.lr.ph.i
  %57 = icmp ult i16 %54, %51
  %58 = add nsw i32 %.026.i, 1
  %59 = add nsw i32 %.026.i, -1
  %.118.i = select i1 %57, i32 %58, i32 %.01724.i
  %.1.i = select i1 %57, i32 %.01625.i, i32 %59
  %60 = add nsw i32 %.118.i, %.1.i
  %.not.i = icmp sgt i32 %.118.i, %.1.i
  br i1 %.not.i, label %_ZN6icu_77L12binarySearchEPKtit.exit.thread, label %.lr.ph.i, !llvm.loop !25

_ZN6icu_77L12binarySearchEPKtit.exit:             ; preds = %.lr.ph.i
  %61 = icmp sgt i32 %.026.in.i.fr, -2
  %62 = zext i1 %61 to i32
  %spec.select = add nsw i32 %.043, %62
  br label %_ZN6icu_77L12binarySearchEPKtit.exit.thread

_ZN6icu_77L12binarySearchEPKtit.exit.thread:      ; preds = %56, %_ZN6icu_77L12binarySearchEPKtit.exit, %47, %45
  %.144 = phi i32 [ %.043, %45 ], [ %.043, %47 ], [ %spec.select, %_ZN6icu_77L12binarySearchEPKtit.exit ], [ %.043, %56 ]
  %.142 = phi i32 [ %46, %45 ], [ %.041, %47 ], [ %.041, %_ZN6icu_77L12binarySearchEPKtit.exit ], [ %.041, %56 ]
  %.1 = phi i32 [ %.037, %45 ], [ %.037, %47 ], [ %50, %_ZN6icu_77L12binarySearchEPKtit.exit ], [ %50, %56 ]
  %63 = icmp slt i32 %.142, 2
  %64 = mul nuw nsw i32 %.142, 5
  %.not50 = icmp slt i32 %64, %.1
  %or.cond51 = select i1 %63, i1 true, i1 %.not50
  br i1 %or.cond51, label %.split.split, label %.loopexit, !llvm.loop !21

.split60.us.loopexit88:                           ; preds = %.split.split
  %65 = sitofp i32 %.043 to double
  %66 = fadd double %65, 1.000000e+00
  br label %.split60.us

.split60.us:                                      ; preds = %.split.split.us, %.split.us, %.split60.us.loopexit88
  %.us-phi = phi double [ %66, %.split60.us.loopexit88 ], [ 1.000000e+00, %.split.us ], [ 1.000000e+00, %.split.split.us ]
  %.us-phi61 = phi i32 [ %.041, %.split60.us.loopexit88 ], [ %.041.us, %.split.us ], [ %.041.us65, %.split.split.us ]
  %.us-phi62 = phi i32 [ %.040, %.split60.us.loopexit88 ], [ %.040.us, %.split.us ], [ %.040.us66, %.split.split.us ]
  %.us-phi63 = phi i32 [ %.037, %.split60.us.loopexit88 ], [ %.037.us, %.split.us ], [ %.037.us67, %.split.split.us ]
  %67 = icmp slt i32 %.us-phi63, 11
  %68 = icmp eq i32 %.us-phi61, 0
  %or.cond = and i1 %68, %67
  br i1 %or.cond, label %69, label %72

69:                                               ; preds = %.split60.us
  %70 = icmp eq i32 %.us-phi63, 0
  %71 = icmp samesign ult i32 %.us-phi62, 10
  %or.cond3 = select i1 %70, i1 %71, i1 false
  %. = select i1 %or.cond3, i32 0, i32 10
  br label %.loopexit

72:                                               ; preds = %.split60.us
  %73 = mul nsw i32 %.us-phi61, 20
  %74 = icmp slt i32 %.us-phi63, %73
  br i1 %74, label %.loopexit, label %75

75:                                               ; preds = %72
  br i1 %.not49, label %76, label %78

76:                                               ; preds = %75
  %reass.sub = sub i32 %.us-phi63, %73
  %77 = add i32 %reass.sub, 30
  br label %86

78:                                               ; preds = %75
  %79 = sitofp i32 %.us-phi63 to double
  %80 = fmul double %79, 2.500000e-01
  %81 = call double @log(double noundef %80) #13, !tbaa !26
  %82 = fdiv double 9.000000e+01, %81
  %83 = call double @log(double noundef %.us-phi) #13, !tbaa !26
  %84 = call double @llvm.fmuladd.f64(double %83, double %82, double 1.000000e+01)
  %85 = fptosi double %84 to i32
  br label %86

86:                                               ; preds = %78, %76
  %.sink = phi i32 [ %85, %78 ], [ %77, %76 ]
  %87 = call i32 @llvm.smin.i32(i32 %.sink, i32 100)
  %spec.store.select4 = call i32 @llvm.smax.i32(i32 %87, i32 0)
  br label %.loopexit

.loopexit:                                        ; preds = %_ZN6icu_77L12binarySearchEPKtit.exit.thread, %_ZN6icu_77L12binarySearchEPKtit.exit.thread.us70, %_ZN6icu_77L12binarySearchEPKtit.exit.thread.us, %72, %86, %69
  %.0 = phi i32 [ %., %69 ], [ %spec.store.select4, %86 ], [ 0, %72 ], [ 0, %_ZN6icu_77L12binarySearchEPKtit.exit.thread.us ], [ 0, %_ZN6icu_77L12binarySearchEPKtit.exit.thread.us70 ], [ 0, %_ZN6icu_77L12binarySearchEPKtit.exit.thread ]
  call void @llvm.lifetime.end.p0(i64 16, ptr nonnull %5) #13
  ret i32 %.0
}